Certificate:
    Data:
        Version: 3 (0x2)
        Serial Number:
            61:03:a3:e5:56:0e:f6:2b:0d:82:d2:8d:a0:86:50:b9
        Signature Algorithm: sha256WithRSAEncryption
        Issuer: CN=Easy-RSA CA
        Validity
            Not Before: May 23 09:58:46 2021 GMT
            Not After : May 21 09:58:46 2031 GMT
        Subject: CN=client1
        Subject Public Key Info:
            Public Key Algorithm: rsaEncryption
                RSA Public-Key: (2048 bit)
                Modulus:
                    00:d3:3e:62:cf:88:0e:b0:ec:49:06:be:10:6f:c3:
                    87:71:53:ef:2f:a8:bf:3e:fe:db:1d:9d:04:e0:5c:
                    75:10:31:7c:15:ab:dc:d8:54:be:12:e6:98:6f:13:
                    ef:89:b2:cb:03:3e:00:ce:b8:61:52:c0:e4:55:ed:
                    d9:cf:eb:e5:c1:f9:71:0d:ea:30:8b:64:d8:d7:63:
                    f1:a9:40:d5:9a:dc:ea:92:4e:e8:d1:ad:7b:b7:c4:
                    bd:dc:1a:94:38:bb:6e:c3:7e:09:74:f2:7a:54:4b:
                    fd:37:4e:e9:0e:db:ba:0c:84:05:3b:c5:8c:38:06:
                    00:c9:92:bf:02:cb:8e:aa:f6:ea:d1:2a:04:34:27:
                    88:fa:33:c4:0c:2e:3a:c2:ff:52:87:82:cc:b8:02:
                    97:0d:96:d8:e8:d1:62:0c:31:15:4d:67:bd:84:fe:
                    a3:e4:e5:5d:84:f1:11:7c:47:e5:71:85:f8:26:c0:
                    e3:71:1c:5f:93:48:33:28:8a:0f:6f:9c:9a:29:00:
                    f2:51:a7:ab:9b:41:eb:b2:0a:a9:91:81:61:e6:b2:
                    fb:34:b3:d1:cb:b9:9e:fc:6d:00:b3:e8:81:c0:55:
                    48:f7:d8:57:e8:aa:06:3d:c0:4b:bd:cd:e1:12:29:
                    53:23:a2:49:8c:82:91:cc:34:8d:c3:a3:39:e5:5a:
                    26:f7
                Exponent: 65537 (0x10001)
        X509v3 extensions:
            X509v3 Basic Constraints: 
                CA:FALSE
            X509v3 Subject Key Identifier: 
                47:E6:90:03:70:6F:F9:A8:80:83:84:31:5A:8C:A2:39:DD:4D:3D:54
            X509v3 Authority Key Identifier: 
                keyid:4C:7D:69:E3:4C:3D:A0:BB:41:69:19:71:87:26:6A:B2:28:42:64:49
                DirName:/CN=Easy-RSA CA
                serial:6A:00:B8:4C:FC:9A:65:E2:37:AD:A5:64:9D:CC:22:FE:4F:3A:50:6A

            X509v3 Extended Key Usage: 
                TLS Web Client Authentication
            X509v3 Key Usage: 
                Digital Signature
    Signature Algorithm: sha256WithRSAEncryption
         62:28:4f:28:ea:2c:5c:08:cd:c2:da:43:14:16:92:ed:f3:17:
         35:69:cf:89:1c:00:23:7f:be:00:1b:9e:eb:3e:cb:04:ee:06:
         db:5c:3f:c6:14:e5:95:9e:56:a5:4a:c8:77:bd:17:52:21:75:
         64:82:85:4b:ea:ed:b1:f9:f5:ff:ca:50:b4:da:73:69:ce:a3:
         7b:4d:15:4d:e6:40:81:06:1f:37:ad:65:4d:58:de:ab:dc:d1:
         be:9c:9b:b3:ca:13:f3:11:8e:78:c6:50:e7:52:ad:b3:22:5a:
         55:30:8d:db:0e:0f:c6:ef:2a:46:dd:f4:a0:69:74:4f:2e:ab:
         4d:71:27:ab:8d:52:4d:93:01:c4:e3:90:50:58:d1:89:3a:a9:
         0f:86:e8:ce:49:d9:57:a6:25:cb:df:cd:62:3c:58:b3:3f:90:
         55:5f:af:92:fe:63:12:fc:9f:6a:99:4e:9a:02:84:7d:c3:f1:
         35:8b:17:62:47:d9:a2:82:1a:e2:38:fd:00:1c:f3:db:38:e3:
         b2:90:c8:41:0b:17:2f:25:d1:68:c9:7a:77:12:7d:8a:1c:ec:
         f0:e0:c1:0e:36:2b:1f:8f:02:f2:45:f7:61:ec:42:ce:80:c0:
         ff:94:f2:f0:51:d4:ab:5b:de:65:11:5c:3f:81:eb:d6:75:fd:
         12:8e:f0:6d
-----BEGIN CERTIFICATE-----
MIIDVTCCAj2gAwIBAgIQYQOj5VYO9isNgtKNoIZQuTANBgkqhkiG9w0BAQsFADAW
MRQwEgYDVQQDDAtFYXN5LVJTQSBDQTAeFw0yMTA1MjMwOTU4NDZaFw0zMTA1MjEw
OTU4NDZaMBIxEDAOBgNVBAMMB2NsaWVudDEwggEiMA0GCSqGSIb3DQEBAQUAA4IB
DwAwggEKAoIBAQDTPmLPiA6w7EkGvhBvw4dxU+8vqL8+/tsdnQTgXHUQMXwVq9zY
VL4S5phvE++JsssDPgDOuGFSwORV7dnP6+XB+XEN6jCLZNjXY/GpQNWa3OqSTujR
rXu3xL3cGpQ4u27Dfgl08npUS/03TukO27oMhAU7xYw4BgDJkr8Cy46q9urRKgQ0
J4j6M8QMLjrC/1KHgsy4ApcNltjo0WIMMRVNZ72E/qPk5V2E8RF8R+VxhfgmwONx
HF+TSDMoig9vnJopAPJRp6ubQeuyCqmRgWHmsvs0s9HLuZ78bQCz6IHAVUj32Ffo
qgY9wEu9zeESKVMjokmMgpHMNI3DoznlWib3AgMBAAGjgaIwgZ8wCQYDVR0TBAIw
ADAdBgNVHQ4EFgQUR+aQA3Bv+aiAg4QxWoyiOd1NPVQwUQYDVR0jBEowSIAUTH1p
40w9oLtBaRlxhyZqsihCZEmhGqQYMBYxFDASBgNVBAMMC0Vhc3ktUlNBIENBghRq
ALhM/Jpl4jetpWSdzCL+TzpQajATBgNVHSUEDDAKBggrBgEFBQcDAjALBgNVHQ8E
BAMCB4AwDQYJKoZIhvcNAQELBQADggEBAGIoTyjqLFwIzcLaQxQWku3zFzVpz4kc
ACN/vgAbnus+ywTuBttcP8YU5ZWeVqVKyHe9F1IhdWSChUvq7bH59f/KULTac2nO
o3tNFU3mQIEGHzetZU1Y3qvc0b6cm7PKE/MRjnjGUOdSrbMiWlUwjdsOD8bvKkbd
9KBpdE8uq01xJ6uNUk2TAcTjkFBY0Yk6qQ+G6M5J2VemJcvfzWI8WLM/kFVfr5L+
YxL8n2qZTpoChH3D8TWLF2JH2aKCGuI4/QAc89s447KQyEELFy8l0WjJencSfYoc
7PDgwQ42Kx+PAvJF92HsQs6AwP+U8vBR1Ktb3mURXD+B69Z1/RKO8G0=
-----END CERTIFICATE-----